target datalayout = "e-m:e-p270:32:32-p271:32:32-p272:64:64-i64:64-i128:128-f80:128-n8:16:32:64-S128"
target triple = "x86_64-unknown-linux-gnu"

%"class.std::__cxx11::basic_string" = type { %"struct.std::__cxx11::basic_string<char>::_Alloc_hider", i64, %union.anon }
%"struct.std::__cxx11::basic_string<char>::_Alloc_hider" = type { ptr }
%union.anon = type { i64, [8 x i8] }
%"struct.Assimp::OpenGEX::OpenGEXImporter::VertexContainer" = type { %"class.std::vector.3", i64, ptr, %"class.std::vector.3", [8 x i64], [8 x ptr] }
%"class.std::vector.3" = type { %"struct.std::_Vector_base.4" }
%"struct.std::_Vector_base.4" = type { %"struct.std::_Vector_base<aiVector3t<float>, std::allocator<aiVector3t<float>>>::_Vector_impl" }
%"struct.std::_Vector_base<aiVector3t<float>, std::allocator<aiVector3t<float>>>::_Vector_impl" = type { %"struct.std::_Vector_base<aiVector3t<float>, std::allocator<aiVector3t<float>>>::_Vector_impl_data" }
%"struct.std::_Vector_base<aiVector3t<float>, std::allocator<aiVector3t<float>>>::_Vector_impl_data" = type { ptr, ptr, ptr }
%"class.Assimp::OpenGEX::OpenGEXImporter" = type { %"class.Assimp::BaseImporter", ptr, %"class.std::map", %"class.std::vector.11", %"class.std::map.16", %"class.std::map.16", ptr, [4 x %"struct.Assimp::OpenGEX::MetricInfo"], ptr, %"struct.Assimp::OpenGEX::OpenGEXImporter::VertexContainer", ptr, ptr, ptr, ptr, i32, %"class.std::vector.24", %"class.std::vector.29", %"class.std::vector.34", %"class.std::vector.39", %"class.std::vector.44" }
%"class.Assimp::BaseImporter" = type { ptr, double, double, %"class.std::__cxx11::basic_string", %"class.std::__exception_ptr::exception_ptr", ptr }
%"class.std::__exception_ptr::exception_ptr" = type { ptr }
%"class.std::map" = type { %"class.std::_Rb_tree" }
%"class.std::_Rb_tree" = type { %"struct.std::_Rb_tree<aiNode *, std::pair<aiNode *const, std::unique_ptr<Assimp::OpenGEX::OpenGEXImporter::ChildInfo>>, std::_Select1st<std::pair<aiNode *const, std::unique_ptr<Assimp::OpenGEX::OpenGEXImporter::ChildInfo>>>, std::less<aiNode *>>::_Rb_tree_impl" }
%"struct.std::_Rb_tree<aiNode *, std::pair<aiNode *const, std::unique_ptr<Assimp::OpenGEX::OpenGEXImporter::ChildInfo>>, std::_Select1st<std::pair<aiNode *const, std::unique_ptr<Assimp::OpenGEX::OpenGEXImporter::ChildInfo>>>, std::less<aiNode *>>::_Rb_tree_impl" = type { %"struct.std::_Rb_tree_key_compare", %"struct.std::_Rb_tree_header" }
%"struct.std::_Rb_tree_key_compare" = type { %"struct.std::less" }
%"struct.std::less" = type { i8 }
%"struct.std::_Rb_tree_header" = type { %"struct.std::_Rb_tree_node_base", i64 }
%"struct.std::_Rb_tree_node_base" = type { i32, ptr, ptr, ptr }
%"class.std::vector.11" = type { %"struct.std::_Vector_base.12" }
%"struct.std::_Vector_base.12" = type { %"struct.std::_Vector_base<std::unique_ptr<aiMesh>, std::allocator<std::unique_ptr<aiMesh>>>::_Vector_impl" }
%"struct.std::_Vector_base<std::unique_ptr<aiMesh>, std::allocator<std::unique_ptr<aiMesh>>>::_Vector_impl" = type { %"struct.std::_Vector_base<std::unique_ptr<aiMesh>, std::allocator<std::unique_ptr<aiMesh>>>::_Vector_impl_data" }
%"struct.std::_Vector_base<std::unique_ptr<aiMesh>, std::allocator<std::unique_ptr<aiMesh>>>::_Vector_impl_data" = type { ptr, ptr, ptr }
%"class.std::map.16" = type { %"class.std::_Rb_tree.17" }
%"class.std::_Rb_tree.17" = type { %"struct.std::_Rb_tree<std::__cxx11::basic_string<char>, std::pair<const std::__cxx11::basic_string<char>, unsigned long>, std::_Select1st<std::pair<const std::__cxx11::basic_string<char>, unsigned long>>, std::less<std::__cxx11::basic_string<char>>>::_Rb_tree_impl" }
%"struct.std::_Rb_tree<std::__cxx11::basic_string<char>, std::pair<const std::__cxx11::basic_string<char>, unsigned long>, std::_Select1st<std::pair<const std::__cxx11::basic_string<char>, unsigned long>>, std::less<std::__cxx11::basic_string<char>>>::_Rb_tree_impl" = type { %"struct.std::_Rb_tree_key_compare.21", %"struct.std::_Rb_tree_header" }
%"struct.std::_Rb_tree_key_compare.21" = type { %"struct.std::less.22" }
%"struct.std::less.22" = type { i8 }
%"struct.Assimp::OpenGEX::MetricInfo" = type { %"class.std::__cxx11::basic_string", float, i32 }
%"class.std::vector.24" = type { %"struct.std::_Vector_base.25" }
%"struct.std::_Vector_base.25" = type { %"struct.std::_Vector_base<aiMaterial *, std::allocator<aiMaterial *>>::_Vector_impl" }
%"struct.std::_Vector_base<aiMaterial *, std::allocator<aiMaterial *>>::_Vector_impl" = type { %"struct.std::_Vector_base<aiMaterial *, std::allocator<aiMaterial *>>::_Vector_impl_data" }
%"struct.std::_Vector_base<aiMaterial *, std::allocator<aiMaterial *>>::_Vector_impl_data" = type { ptr, ptr, ptr }
%"class.std::vector.29" = type { %"struct.std::_Vector_base.30" }
%"struct.std::_Vector_base.30" = type { %"struct.std::_Vector_base<aiCamera *, std::allocator<aiCamera *>>::_Vector_impl" }
%"struct.std::_Vector_base<aiCamera *, std::allocator<aiCamera *>>::_Vector_impl" = type { %"struct.std::_Vector_base<aiCamera *, std::allocator<aiCamera *>>::_Vector_impl_data" }
%"struct.std::_Vector_base<aiCamera *, std::allocator<aiCamera *>>::_Vector_impl_data" = type { ptr, ptr, ptr }
%"class.std::vector.34" = type { %"struct.std::_Vector_base.35" }
%"struct.std::_Vector_base.35" = type { %"struct.std::_Vector_base<aiLight *, std::allocator<aiLight *>>::_Vector_impl" }
%"struct.std::_Vector_base<aiLight *, std::allocator<aiLight *>>::_Vector_impl" = type { %"struct.std::_Vector_base<aiLight *, std::allocator<aiLight *>>::_Vector_impl_data" }
%"struct.std::_Vector_base<aiLight *, std::allocator<aiLight *>>::_Vector_impl_data" = type { ptr, ptr, ptr }
%"class.std::vector.39" = type { %"struct.std::_Vector_base.40" }
%"struct.std::_Vector_base.40" = type { %"struct.std::_Vector_base<aiNode *, std::allocator<aiNode *>>::_Vector_impl" }
%"struct.std::_Vector_base<aiNode *, std::allocator<aiNode *>>::_Vector_impl" = type { %"struct.std::_Vector_base<aiNode *, std::allocator<aiNode *>>::_Vector_impl_data" }
%"struct.std::_Vector_base<aiNode *, std::allocator<aiNode *>>::_Vector_impl_data" = type { ptr, ptr, ptr }
%"class.std::vector.44" = type { %"struct.std::_Vector_base.45" }
%"struct.std::_Vector_base.45" = type { %"struct.std::_Vector_base<std::unique_ptr<Assimp::OpenGEX::OpenGEXImporter::RefInfo>, std::allocator<std::unique_ptr<Assimp::OpenGEX::OpenGEXImporter::RefInfo>>>::_Vector_impl" }
%"struct.std::_Vector_base<std::unique_ptr<Assimp::OpenGEX::OpenGEXImporter::RefInfo>, std::allocator<std::unique_ptr<Assimp::OpenGEX::OpenGEXImporter::RefInfo>>>::_Vector_impl" = type { %"struct.std::_Vector_base<std::unique_ptr<Assimp::OpenGEX::OpenGEXImporter::RefInfo>, std::allocator<std::unique_ptr<Assimp::OpenGEX::OpenGEXImporter::RefInfo>>>::_Vector_impl_data" }
%"struct.std::_Vector_base<std::unique_ptr<Assimp::OpenGEX::OpenGEXImporter::RefInfo>, std::allocator<std::unique_ptr<Assimp::OpenGEX::OpenGEXImporter::RefInfo>>>::_Vector_impl_data" = type { ptr, ptr, ptr }
%"class.__gnu_cxx::__normal_iterator.124" = type { ptr }

; Function Attrs: mustprogress nounwind uwtable
define linkonce_odr void @_ZNSt15__new_allocatorIP6aiNodeE7destroyIS1_EEvPT_(ptr noundef nonnull align 1 dereferenceable(1) %this, ptr noundef %__p) #0 comdat align 2 {
entry:
  %this.addr = alloca ptr, align 8
  %__p.addr = alloca ptr, align 8
  store ptr %this, ptr %this.addr, align 8
  store ptr %__p, ptr %__p.addr, align 8
  ret void
}

; Function Attrs: mustprogress nounwind uwtable
define linkonce_odr noundef nonnull align 8 dereferenceable(8) ptr @_ZNK9__gnu_cxx17__normal_iteratorIPKP6aiNodeSt6vectorIS2_SaIS2_EEEdeEv(ptr noundef nonnull align 8 dereferenceable(8) %this) #0 comdat align 2 {
entry:
  %this.addr = alloca ptr, align 8
  store ptr %this, ptr %this.addr, align 8
  %this1 = load ptr, ptr %this.addr, align 8
  %_M_current = getelementptr inbounds %"class.__gnu_cxx::__normal_iterator.124", ptr %this1, i32 0, i32 0
  %0 = load ptr, ptr %_M_current, align 8
  ret ptr %0
}

; Function Attrs: mustprogress nounwind uwtable
define linkonce_odr ptr @_ZNK9__gnu_cxx17__normal_iteratorIPKP6aiNodeSt6vectorIS2_SaIS2_EEEmiEl(ptr noundef nonnull align 8 dereferenceable(8) %this, i64 noundef %__n) #0 comdat align 2 {
entry:
  %retval = alloca %"class.__gnu_cxx::__normal_iterator.124", align 8
  %this.addr = alloca ptr, align 8
  %__n.addr = alloca i64, align 8
  %ref.tmp = alloca ptr, align 8
  store ptr %this, ptr %this.addr, align 8
  store i64 %__n, ptr %__n.addr, align 8
  %this1 = load ptr, ptr %this.addr, align 8
  %_M_current = getelementptr inbounds %"class.__gnu_cxx::__normal_iterator.124", ptr %this1, i32 0, i32 0
  %0 = load ptr, ptr %_M_current, align 8
  %1 = load i64, ptr %__n.addr, align 8
  %idx.neg = sub i64 0, %1
  %add.ptr = getelementptr inbounds ptr, ptr %0, i64 %idx.neg
  store ptr %add.ptr, ptr %ref.tmp, align 8
  call void @_ZN9__gnu_cxx17__normal_iteratorIPKP6aiNodeSt6vectorIS2_SaIS2_EEEC2ERKS4_(ptr noundef nonnull align 8 dereferenceable(8) %retval, ptr noundef nonnull align 8 dereferenceable(8) %ref.tmp) #5
  %coerce.dive = getelementptr inbounds %"class.__gnu_cxx::__normal_iterator.124", ptr %retval, i32 0, i32 0
  %2 = load ptr, ptr %coerce.dive, align 8
  ret ptr %2
}

; Function Attrs: mustprogress nounwind uwtable
define linkonce_odr noundef nonnull align 8 dereferenceable(8) ptr @_ZNK9__gnu_cxx17__normal_iteratorIPKP6aiNodeSt6vectorIS2_SaIS2_EEE4baseEv(ptr noundef nonnull align 8 dereferenceable(8) %this) #0 comdat align 2 {
entry:
  %this.addr = alloca ptr, align 8
  store ptr %this, ptr %this.addr, align 8
  %this1 = load ptr, ptr %this.addr, align 8
  %_M_current = getelementptr inbounds %"class.__gnu_cxx::__normal_iterator.124", ptr %this1, i32 0, i32 0
  ret ptr %_M_current
}

; Function Attrs: mustprogress nounwind uwtable
define linkonce_odr void @_ZN9__gnu_cxx17__normal_iteratorIPKP6aiNodeSt6vectorIS2_SaIS2_EEEC2ERKS4_(ptr noundef nonnull align 8 dereferenceable(8) %this, ptr noundef nonnull align 8 dereferenceable(8) %__i) unnamed_addr #0 comdat align 2 {
entry:
  %this.addr = alloca ptr, align 8
  %__i.addr = alloca ptr, align 8
  store ptr %this, ptr %this.addr, align 8
  store ptr %__i, ptr %__i.addr, align 8
  %this1 = load ptr, ptr %this.addr, align 8
  %_M_current = getelementptr inbounds %"class.__gnu_cxx::__normal_iterator.124", ptr %this1, i32 0, i32 0
  %0 = load ptr, ptr %__i.addr, align 8
  %1 = load ptr, ptr %0, align 8
  store ptr %1, ptr %_M_current, align 8
  ret void
}

; Function Attrs: mustprogress nounwind uwtable
define linkonce_odr void @_ZNSt16allocator_traitsISaIP6aiNodeEE7destroyIS1_EEvRS2_PT_(ptr noundef nonnull align 1 dereferenceable(1) %__a, ptr noundef %__p) #0 comdat align 2 {
entry:
  %__a.addr = alloca ptr, align 8
  %__p.addr = alloca ptr, align 8
  store ptr %__a, ptr %__a.addr, align 8
  store ptr %__p, ptr %__p.addr, align 8
  %0 = load ptr, ptr %__a.addr, align 8
  %1 = load ptr, ptr %__p.addr, align 8
  call void @_ZNSt15__new_allocatorIP6aiNodeE7destroyIS1_EEvPT_(ptr noundef nonnull align 1 dereferenceable(1) %0, ptr noundef %1) #5
  ret void
}

; Function Attrs: mustprogress nounwind uwtable
define linkonce_odr noundef nonnull align 8 dereferenceable(8) ptr @_ZNKSt6vectorIP6aiNodeSaIS1_EE4backEv(ptr noundef nonnull align 8 dereferenceable(24) %this) #0 comdat align 2 {
entry:
  %this.addr = alloca ptr, align 8
  %ref.tmp = alloca %"class.__gnu_cxx::__normal_iterator.124", align 8
  %ref.tmp2 = alloca %"class.__gnu_cxx::__normal_iterator.124", align 8
  store ptr %this, ptr %this.addr, align 8
  %this1 = load ptr, ptr %this.addr, align 8
  %call = call ptr @_ZNKSt6vectorIP6aiNodeSaIS1_EE3endEv(ptr noundef nonnull align 8 dereferenceable(24) %this1) #5
  %coerce.dive = getelementptr inbounds %"class.__gnu_cxx::__normal_iterator.124", ptr %ref.tmp2, i32 0, i32 0
  store ptr %call, ptr %coerce.dive, align 8
  %call3 = call ptr @_ZNK9__gnu_cxx17__normal_iteratorIPKP6aiNodeSt6vectorIS2_SaIS2_EEEmiEl(ptr noundef nonnull align 8 dereferenceable(8) %ref.tmp2, i64 noundef 1) #5
  %coerce.dive4 = getelementptr inbounds %"class.__gnu_cxx::__normal_iterator.124", ptr %ref.tmp, i32 0, i32 0
  store ptr %call3, ptr %coerce.dive4, align 8
  %call5 = call noundef nonnull align 8 dereferenceable(8) ptr @_ZNK9__gnu_cxx17__normal_iteratorIPKP6aiNodeSt6vectorIS2_SaIS2_EEEdeEv(ptr noundef nonnull align 8 dereferenceable(8) %ref.tmp) #5
  ret ptr %call5
}

; Function Attrs: mustprogress nounwind uwtable
define linkonce_odr noundef zeroext i1 @_ZN9__gnu_cxxeqIPKP6aiNodeSt6vectorIS2_SaIS2_EEEEbRKNS_17__normal_iteratorIT_T0_EESD_(ptr noundef nonnull align 8 dereferenceable(8) %__lhs, ptr noundef nonnull align 8 dereferenceable(8) %__rhs) #0 comdat {
entry:
  %__lhs.addr = alloca ptr, align 8
  %__rhs.addr = alloca ptr, align 8
  store ptr %__lhs, ptr %__lhs.addr, align 8
  store ptr %__rhs, ptr %__rhs.addr, align 8
  %0 = load ptr, ptr %__lhs.addr, align 8
  %call = call noundef nonnull align 8 dereferenceable(8) ptr @_ZNK9__gnu_cxx17__normal_iteratorIPKP6aiNodeSt6vectorIS2_SaIS2_EEE4baseEv(ptr noundef nonnull align 8 dereferenceable(8) %0) #5
  %1 = load ptr, ptr %call, align 8
  %2 = load ptr, ptr %__rhs.addr, align 8
  %call1 = call noundef nonnull align 8 dereferenceable(8) ptr @_ZNK9__gnu_cxx17__normal_iteratorIPKP6aiNodeSt6vectorIS2_SaIS2_EEE4baseEv(ptr noundef nonnull align 8 dereferenceable(8) %2) #5
  %3 = load ptr, ptr %call1, align 8
  %cmp = icmp eq ptr %1, %3
  ret i1 %cmp
}

; Function Attrs: mustprogress nounwind uwtable
define linkonce_odr ptr @_ZNKSt6vectorIP6aiNodeSaIS1_EE3endEv(ptr noundef nonnull align 8 dereferenceable(24) %this) #0 comdat align 2 {
entry:
  %retval = alloca %"class.__gnu_cxx::__normal_iterator.124", align 8
  %this.addr = alloca ptr, align 8
  store ptr %this, ptr %this.addr, align 8
  %this1 = load ptr, ptr %this.addr, align 8
  %_M_impl = getelementptr inbounds %"struct.std::_Vector_base.40", ptr %this1, i32 0, i32 0
  %_M_finish = getelementptr inbounds %"struct.std::_Vector_base<aiNode *, std::allocator<aiNode *>>::_Vector_impl_data", ptr %_M_impl, i32 0, i32 1
  call void @_ZN9__gnu_cxx17__normal_iteratorIPKP6aiNodeSt6vectorIS2_SaIS2_EEEC2ERKS4_(ptr noundef nonnull align 8 dereferenceable(8) %retval, ptr noundef nonnull align 8 dereferenceable(8) %_M_finish) #5
  %coerce.dive = getelementptr inbounds %"class.__gnu_cxx::__normal_iterator.124", ptr %retval, i32 0, i32 0
  %0 = load ptr, ptr %coerce.dive, align 8
  ret ptr %0
}

; Function Attrs: mustprogress nounwind uwtable
define linkonce_odr ptr @_ZNKSt6vectorIP6aiNodeSaIS1_EE5beginEv(ptr noundef nonnull align 8 dereferenceable(24) %this) #0 comdat align 2 {
entry:
  %retval = alloca %"class.__gnu_cxx::__normal_iterator.124", align 8
  %this.addr = alloca ptr, align 8
  store ptr %this, ptr %this.addr, align 8
  %this1 = load ptr, ptr %this.addr, align 8
  %_M_impl = getelementptr inbounds %"struct.std::_Vector_base.40", ptr %this1, i32 0, i32 0
  %_M_start = getelementptr inbounds %"struct.std::_Vector_base<aiNode *, std::allocator<aiNode *>>::_Vector_impl_data", ptr %_M_impl, i32 0, i32 0
  call void @_ZN9__gnu_cxx17__normal_iteratorIPKP6aiNodeSt6vectorIS2_SaIS2_EEEC2ERKS4_(ptr noundef nonnull align 8 dereferenceable(8) %retval, ptr noundef nonnull align 8 dereferenceable(8) %_M_start) #5
  %coerce.dive = getelementptr inbounds %"class.__gnu_cxx::__normal_iterator.124", ptr %retval, i32 0, i32 0
  %0 = load ptr, ptr %coerce.dive, align 8
  ret ptr %0
}

; Function Attrs: mustprogress nounwind uwtable
define linkonce_odr void @_ZNSt6vectorIP6aiNodeSaIS1_EE8pop_backEv(ptr noundef nonnull align 8 dereferenceable(24) %this) #0 comdat align 2 {
entry:
  %this.addr = alloca ptr, align 8
  store ptr %this, ptr %this.addr, align 8
  %this1 = load ptr, ptr %this.addr, align 8
  %_M_impl = getelementptr inbounds %"struct.std::_Vector_base.40", ptr %this1, i32 0, i32 0
  %_M_finish = getelementptr inbounds %"struct.std::_Vector_base<aiNode *, std::allocator<aiNode *>>::_Vector_impl_data", ptr %_M_impl, i32 0, i32 1
  %0 = load ptr, ptr %_M_finish, align 8
  %incdec.ptr = getelementptr inbounds ptr, ptr %0, i32 -1
  store ptr %incdec.ptr, ptr %_M_finish, align 8
  %_M_impl2 = getelementptr inbounds %"struct.std::_Vector_base.40", ptr %this1, i32 0, i32 0
  %_M_impl3 = getelementptr inbounds %"struct.std::_Vector_base.40", ptr %this1, i32 0, i32 0
  %_M_finish4 = getelementptr inbounds %"struct.std::_Vector_base<aiNode *, std::allocator<aiNode *>>::_Vector_impl_data", ptr %_M_impl3, i32 0, i32 1
  %1 = load ptr, ptr %_M_finish4, align 8
  call void @_ZNSt16allocator_traitsISaIP6aiNodeEE7destroyIS1_EEvRS2_PT_(ptr noundef nonnull align 1 dereferenceable(1) %_M_impl2, ptr noundef %1) #5
  ret void
}

; Function Attrs: mustprogress nounwind uwtable
define hidden noundef ptr @_ZNK6Assimp7OpenGEX15OpenGEXImporter3topEv(ptr noundef nonnull align 8 dereferenceable(776) %this) #0 align 2 {
entry:
  %retval = alloca ptr, align 8
  %this.addr = alloca ptr, align 8
  store ptr %this, ptr %this.addr, align 8
  %this1 = load ptr, ptr %this.addr, align 8
  %m_nodeStack = getelementptr inbounds %"class.Assimp::OpenGEX::OpenGEXImporter", ptr %this1, i32 0, i32 18
  %call = call noundef zeroext i1 @_ZNKSt6vectorIP6aiNodeSaIS1_EE5emptyEv(ptr noundef nonnull align 8 dereferenceable(24) %m_nodeStack) #5
  br i1 %call, label %if.then, label %if.end

if.then:                                          ; preds = %entry
  store ptr null, ptr %retval, align 8
  br label %return

if.end:                                           ; preds = %entry
  %m_nodeStack2 = getelementptr inbounds %"class.Assimp::OpenGEX::OpenGEXImporter", ptr %this1, i32 0, i32 18
  %call3 = call noundef nonnull align 8 dereferenceable(8) ptr @_ZNKSt6vectorIP6aiNodeSaIS1_EE4backEv(ptr noundef nonnull align 8 dereferenceable(24) %m_nodeStack2) #5
  %0 = load ptr, ptr %call3, align 8
  store ptr %0, ptr %retval, align 8
  br label %return

return:                                           ; preds = %if.end, %if.then
  %1 = load ptr, ptr %retval, align 8
  ret ptr %1
}

; Function Attrs: mustprogress nounwind uwtable
define linkonce_odr noundef zeroext i1 @_ZNKSt6vectorIP6aiNodeSaIS1_EE5emptyEv(ptr noundef nonnull align 8 dereferenceable(24) %this) #0 comdat align 2 {
entry:
  %this.addr = alloca ptr, align 8
  %ref.tmp = alloca %"class.__gnu_cxx::__normal_iterator.124", align 8
  %ref.tmp2 = alloca %"class.__gnu_cxx::__normal_iterator.124", align 8
  store ptr %this, ptr %this.addr, align 8
  %this1 = load ptr, ptr %this.addr, align 8
  %call = call ptr @_ZNKSt6vectorIP6aiNodeSaIS1_EE5beginEv(ptr noundef nonnull align 8 dereferenceable(24) %this1) #5
  %coerce.dive = getelementptr inbounds %"class.__gnu_cxx::__normal_iterator.124", ptr %ref.tmp, i32 0, i32 0
  store ptr %call, ptr %coerce.dive, align 8
  %call3 = call ptr @_ZNKSt6vectorIP6aiNodeSaIS1_EE3endEv(ptr noundef nonnull align 8 dereferenceable(24) %this1) #5
  %coerce.dive4 = getelementptr inbounds %"class.__gnu_cxx::__normal_iterator.124", ptr %ref.tmp2, i32 0, i32 0
  store ptr %call3, ptr %coerce.dive4, align 8
  %call5 = call noundef zeroext i1 @_ZN9__gnu_cxxeqIPKP6aiNodeSt6vectorIS2_SaIS2_EEEEbRKNS_17__normal_iteratorIT_T0_EESD_(ptr noundef nonnull align 8 dereferenceable(8) %ref.tmp, ptr noundef nonnull align 8 dereferenceable(8) %ref.tmp2) #5
  ret i1 %call5
}

; Function Attrs: mustprogress uwtable
define hidden noundef ptr @_ZN6Assimp7OpenGEX15OpenGEXImporter7popNodeEv(ptr noundef nonnull align 8 dereferenceable(776) %this) #4 align 2 {
entry:
  %retval = alloca ptr, align 8
  %this.addr = alloca ptr, align 8
  %node = alloca ptr, align 8
  store ptr %this, ptr %this.addr, align 8
  %this1 = load ptr, ptr %this.addr, align 8
  %m_nodeStack = getelementptr inbounds %"class.Assimp::OpenGEX::OpenGEXImporter", ptr %this1, i32 0, i32 18
  %call = call noundef zeroext i1 @_ZNKSt6vectorIP6aiNodeSaIS1_EE5emptyEv(ptr noundef nonnull align 8 dereferenceable(24) %m_nodeStack) #5
  br i1 %call, label %if.then, label %if.end

if.then:                                          ; preds = %entry
  store ptr null, ptr %retval, align 8
  br label %return

if.end:                                           ; preds = %entry
  %call2 = call noundef ptr @_ZNK6Assimp7OpenGEX15OpenGEXImporter3topEv(ptr noundef nonnull align 8 dereferenceable(776) %this1)
  store ptr %call2, ptr %node, align 8
  %m_nodeStack3 = getelementptr inbounds %"class.Assimp::OpenGEX::OpenGEXImporter", ptr %this1, i32 0, i32 18
  call void @_ZNSt6vectorIP6aiNodeSaIS1_EE8pop_backEv(ptr noundef nonnull align 8 dereferenceable(24) %m_nodeStack3) #5
  %0 = load ptr, ptr %node, align 8
  store ptr %0, ptr %retval, align 8
  br label %return

return:                                           ; preds = %if.end, %if.then
  %1 = load ptr, ptr %retval, align 8
  ret ptr %1
}

; Function Attrs: mustprogress uwtable
define hidden void @_ZN6Assimp7OpenGEX15OpenGEXImporter18handleGeometryNodeEPN10ODDLParser7DDLNodeEP7aiScene(ptr noundef nonnull align 8 dereferenceable(776) %this, ptr noundef %node, ptr noundef %pScene) #4 align 2 personality ptr @__gxx_personality_v0 {
entry:
  %this.addr = alloca ptr, align 8
  %node.addr = alloca ptr, align 8
  %pScene.addr = alloca ptr, align 8
  %newNode = alloca ptr, align 8
  %exn.slot = alloca ptr, align 8
  %ehselector.slot = alloca i32, align 4
  store ptr %this, ptr %this.addr, align 8
  store ptr %node, ptr %node.addr, align 8
  store ptr %pScene, ptr %pScene.addr, align 8
  %this1 = load ptr, ptr %this.addr, align 8
  %call = call noalias noundef nonnull ptr @_Znwm(i64 noundef 1144) #18
  invoke void @_ZN6aiNodeC1Ev(ptr noundef nonnull align 8 dereferenceable(1144) %call)
          to label %invoke.cont unwind label %lpad

invoke.cont:                                      ; preds = %entry
  store ptr %call, ptr %newNode, align 8
  %0 = load ptr, ptr %newNode, align 8
  %1 = load ptr, ptr %pScene.addr, align 8
  call void @_ZN6Assimp7OpenGEX15OpenGEXImporter8pushNodeEP6aiNodeP7aiScene(ptr noundef nonnull align 8 dereferenceable(776) %this1, ptr noundef %0, ptr noundef %1)
  %m_tokenType = getelementptr inbounds %"class.Assimp::OpenGEX::OpenGEXImporter", ptr %this1, i32 0, i32 14
  store i32 5, ptr %m_tokenType, align 8
  %2 = load ptr, ptr %newNode, align 8
  %m_currentNode = getelementptr inbounds %"class.Assimp::OpenGEX::OpenGEXImporter", ptr %this1, i32 0, i32 8
  store ptr %2, ptr %m_currentNode, align 8
  %3 = load ptr, ptr %node.addr, align 8
  %4 = load ptr, ptr %pScene.addr, align 8
  call void @_ZN6Assimp7OpenGEX15OpenGEXImporter11handleNodesEPN10ODDLParser7DDLNodeEP7aiScene(ptr noundef nonnull align 8 dereferenceable(776) %this1, ptr noundef %3, ptr noundef %4)
  %call2 = call noundef ptr @_ZN6Assimp7OpenGEX15OpenGEXImporter7popNodeEv(ptr noundef nonnull align 8 dereferenceable(776) %this1)
  ret void

lpad:                                             ; preds = %entry
  %5 = landingpad { ptr, i32 }
          cleanup
  %6 = extractvalue { ptr, i32 } %5, 0
  store ptr %6, ptr %exn.slot, align 8
  %7 = extractvalue { ptr, i32 } %5, 1
  store i32 %7, ptr %ehselector.slot, align 4
  call void @_ZdlPv(ptr noundef %call) #17
  br label %eh.resume

eh.resume:                                        ; preds = %lpad
  %exn = load ptr, ptr %exn.slot, align 8
  %sel = load i32, ptr %ehselector.slot, align 4
  %lpad.val = insertvalue { ptr, i32 } poison, ptr %exn, 0
  %lpad.val3 = insertvalue { ptr, i32 } %lpad.val, i32 %sel, 1
  resume { ptr, i32 } %lpad.val3
}