; Function Attrs: mustprogress uwtable
define hidden void @_ZN6Assimp7OpenGEX15OpenGEXImporter18handleGeometryNodeEPN10ODDLParser7DDLNodeEP7aiScene(ptr noundef nonnull align 8 dereferenceable(776) %this, ptr noundef %node, ptr nocapture noundef readonly %pScene) local_unnamed_addr #7 align 2 personality ptr @__gxx_personality_v0 {
entry:
  %call = tail call noalias noundef nonnull dereferenceable(1144) ptr @_Znwm(i64 noundef 1144) #28
  invoke void @_ZN6aiNodeC1Ev(ptr noundef nonnull align 8 dereferenceable(1144) %call)
          to label %invoke.cont unwind label %lpad

invoke.cont:                                      ; preds = %entry
  tail call void @_ZN6Assimp7OpenGEX15OpenGEXImporter8pushNodeEP6aiNodeP7aiScene(ptr noundef nonnull align 8 dereferenceable(776) %this, ptr noundef nonnull %call, ptr noundef %pScene)
  %m_tokenType = getelementptr inbounds i8, ptr %this, i64 648
  store i32 5, ptr %m_tokenType, align 8
  %m_currentNode = getelementptr inbounds i8, ptr %this, i64 416
  store ptr %call, ptr %m_currentNode, align 8
  tail call void @_ZN6Assimp7OpenGEX15OpenGEXImporter11handleNodesEPN10ODDLParser7DDLNodeEP7aiScene(ptr noundef nonnull align 8 dereferenceable(776) %this, ptr noundef %node, ptr noundef %pScene)
  %m_nodeStack.i = getelementptr inbounds i8, ptr %this, i64 728
  %0 = load ptr, ptr %m_nodeStack.i, align 8
  %_M_finish.i.i.i = getelementptr inbounds i8, ptr %this, i64 736
  %1 = load ptr, ptr %_M_finish.i.i.i, align 8
  %cmp.i.i.i = icmp eq ptr %0, %1
  br i1 %cmp.i.i.i, label %_ZN6Assimp7OpenGEX15OpenGEXImporter7popNodeEv.exit, label %_ZNK6Assimp7OpenGEX15OpenGEXImporter3topEv.exit.i

_ZNK6Assimp7OpenGEX15OpenGEXImporter3topEv.exit.i: ; preds = %invoke.cont
  %add.ptr.i.i.i.i = getelementptr inbounds i8, ptr %1, i64 -8
  store ptr %add.ptr.i.i.i.i, ptr %_M_finish.i.i.i, align 8
  br label %_ZN6Assimp7OpenGEX15OpenGEXImporter7popNodeEv.exit

_ZN6Assimp7OpenGEX15OpenGEXImporter7popNodeEv.exit: ; preds = %invoke.cont, %_ZNK6Assimp7OpenGEX15OpenGEXImporter3topEv.exit.i
  ret void

lpad:                                             ; preds = %entry
  %2 = landingpad { ptr, i32 }
          cleanup
  tail call void @_ZdlPv(ptr noundef nonnull %call) #26
  resume { ptr, i32 } %2
}